; Function Attrs: mustprogress uwtable
define hidden noundef i32 @_ZN2dd11bdd_manager8mk_quantEjPKjjNS0_6bdd_opE(ptr noundef nonnull align 8 dereferenceable(728) %this, i32 noundef %n, ptr nocapture noundef readonly %vars, i32 noundef %b, i32 noundef %op) local_unnamed_addr #3 align 2 {
entry:
  %cmp4.not = icmp eq i32 %n, 0
  br i1 %cmp4.not, label %for.end, label %for.body.lr.ph

for.body.lr.ph:                                   ; preds = %entry
  %m_var2level = getelementptr inbounds i8, ptr %this, i64 96
  %wide.trip.count = zext i32 %n to i64
  br label %for.body

for.body:                                         ; preds = %for.body.lr.ph, %for.body
  %indvars.iv = phi i64 [ 0, %for.body.lr.ph ], [ %indvars.iv.next, %for.body ]
  %result.05 = phi i32 [ %b, %for.body.lr.ph ], [ %call2, %for.body ]
  %arrayidx = getelementptr inbounds i32, ptr %vars, i64 %indvars.iv
  %0 = load i32, ptr %arrayidx, align 4
  %1 = load ptr, ptr %m_var2level, align 8
  %idxprom.i = zext i32 %0 to i64
  %arrayidx.i = getelementptr inbounds i32, ptr %1, i64 %idxprom.i
  %2 = load i32, ptr %arrayidx.i, align 4
  %call2 = tail call noundef i32 @_ZN2dd11bdd_manager12mk_quant_recEjjNS0_6bdd_opE(ptr noundef nonnull align 8 dereferenceable(728) %this, i32 noundef %2, i32 noundef %result.05, i32 noundef %op)
  %indvars.iv.next = add nuw nsw i64 %indvars.iv, 1
  %exitcond.not = icmp eq i64 %indvars.iv.next, %wide.trip.count
  br i1 %exitcond.not, label %for.end, label %for.body, !llvm.loop !23

for.end:                                          ; preds = %for.body, %entry
  %result.0.lcssa = phi i32 [ %b, %entry ], [ %call2, %for.body ]
  ret i32 %result.0.lcssa
}